; Function Attrs: mustprogress nofree norecurse nosync nounwind willreturn memory(argmem: write) uwtable
define internal range(i32 -2, 3) i32 @ecd_ctrl(ptr readnone captures(none) %0, i32 noundef %1, i64 %2, ptr noundef writeonly captures(none) %3) #4 {
  %cond = icmp eq i32 %1, 3
  br i1 %cond, label %5, label %6

5:                                                ; preds = %4
  store i32 0, ptr %3, align 4, !tbaa !10
  br label %6

6:                                                ; preds = %4, %5
  %.0 = phi i32 [ 2, %5 ], [ -2, %4 ]
  ret i32 %.0
}